; Function Attrs: nounwind uwtable
define i32 @avio_get_str16be(ptr noundef %0, i32 noundef %1, ptr noundef %2, i32 noundef %3) local_unnamed_addr #3 {
  %5 = icmp slt i32 %3, 1
  br i1 %5, label %120, label %.preheader

.preheader:                                       ; preds = %4
  %6 = icmp sgt i32 %1, 1
  br i1 %6, label %.lr.ph107, label %.thread98

.lr.ph107:                                        ; preds = %.preheader
  %7 = getelementptr inbounds nuw i8, ptr %0, i64 24
  %8 = getelementptr inbounds nuw i8, ptr %0, i64 32
  %9 = ptrtoint ptr %2 to i64
  %10 = add nsw i32 %3, -1
  %11 = zext nneg i32 %10 to i64
  br label %12

12:                                               ; preds = %.lr.ph107, %.loopexit
  %.050106 = phi ptr [ %2, %.lr.ph107 ], [ %.2, %.loopexit ]
  %.051105 = phi i32 [ 0, %.lr.ph107 ], [ %.35480, %.loopexit ]
  %13 = add nsw i32 %.051105, 2
  %14 = load ptr, ptr %7, align 8, !tbaa !16
  %15 = load ptr, ptr %8, align 8, !tbaa !19
  %.not.i.i = icmp ult ptr %14, %15
  br i1 %.not.i.i, label %17, label %16

16:                                               ; preds = %12
  tail call fastcc void @fill_buffer(ptr noundef nonnull %0)
  %.pre.i.i = load ptr, ptr %7, align 8, !tbaa !16
  %.pre7.i.i = load ptr, ptr %8, align 8, !tbaa !19
  br label %17

17:                                               ; preds = %16, %12
  %18 = phi ptr [ %.pre7.i.i, %16 ], [ %15, %12 ]
  %19 = phi ptr [ %.pre.i.i, %16 ], [ %14, %12 ]
  %20 = icmp ult ptr %19, %18
  br i1 %20, label %21, label %avio_r8.exit.i

21:                                               ; preds = %17
  %22 = getelementptr inbounds nuw i8, ptr %19, i64 1
  store ptr %22, ptr %7, align 8, !tbaa !16
  %23 = load i8, ptr %19, align 1, !tbaa !33
  %24 = zext i8 %23 to i32
  %25 = shl nuw nsw i32 %24, 8
  br label %avio_r8.exit.i

avio_r8.exit.i:                                   ; preds = %21, %17
  %26 = phi ptr [ %22, %21 ], [ %19, %17 ]
  %.0.i.i = phi i32 [ %25, %21 ], [ 0, %17 ]
  %.not.i3.i = icmp ult ptr %26, %18
  br i1 %.not.i3.i, label %28, label %27

27:                                               ; preds = %avio_r8.exit.i
  tail call fastcc void @fill_buffer(ptr noundef nonnull %0)
  %.pre.i4.i = load ptr, ptr %7, align 8, !tbaa !16
  %.pre7.i5.i = load ptr, ptr %8, align 8, !tbaa !19
  br label %28

28:                                               ; preds = %27, %avio_r8.exit.i
  %29 = phi ptr [ %.pre7.i5.i, %27 ], [ %18, %avio_r8.exit.i ]
  %30 = phi ptr [ %.pre.i4.i, %27 ], [ %26, %avio_r8.exit.i ]
  %31 = icmp ult ptr %30, %29
  br i1 %31, label %32, label %36

32:                                               ; preds = %28
  %33 = getelementptr inbounds nuw i8, ptr %30, i64 1
  store ptr %33, ptr %7, align 8, !tbaa !16
  %34 = load i8, ptr %30, align 1, !tbaa !33
  %35 = zext i8 %34 to i32
  br label %36

36:                                               ; preds = %32, %28
  %37 = phi ptr [ %33, %32 ], [ %30, %28 ]
  %.0.i6.i = phi i32 [ %35, %32 ], [ 0, %28 ]
  %38 = or disjoint i32 %.0.i6.i, %.0.i.i
  %39 = add nsw i32 %38, -55296
  %40 = icmp ult i32 %39, 2048
  br i1 %40, label %41, label %72

41:                                               ; preds = %36
  %42 = add nsw i32 %.051105, 4
  %.not62 = icmp sgt i32 %42, %1
  br i1 %.not62, label %66, label %43

43:                                               ; preds = %41
  %.not.i.i64 = icmp ult ptr %37, %29
  br i1 %.not.i.i64, label %45, label %44

44:                                               ; preds = %43
  tail call fastcc void @fill_buffer(ptr noundef nonnull %0)
  %.pre.i.i65 = load ptr, ptr %7, align 8, !tbaa !16
  %.pre7.i.i66 = load ptr, ptr %8, align 8, !tbaa !19
  br label %45

45:                                               ; preds = %44, %43
  %46 = phi ptr [ %.pre7.i.i66, %44 ], [ %29, %43 ]
  %47 = phi ptr [ %.pre.i.i65, %44 ], [ %37, %43 ]
  %48 = icmp ult ptr %47, %46
  br i1 %48, label %49, label %avio_r8.exit.i67

49:                                               ; preds = %45
  %50 = getelementptr inbounds nuw i8, ptr %47, i64 1
  store ptr %50, ptr %7, align 8, !tbaa !16
  %51 = load i8, ptr %47, align 1, !tbaa !33
  %52 = zext i8 %51 to i32
  %53 = shl nuw nsw i32 %52, 8
  %54 = add nsw i32 %53, -56320
  br label %avio_r8.exit.i67

avio_r8.exit.i67:                                 ; preds = %49, %45
  %55 = phi ptr [ %50, %49 ], [ %47, %45 ]
  %.0.i.i68 = phi i32 [ %54, %49 ], [ -56320, %45 ]
  %.not.i3.i69 = icmp ult ptr %55, %46
  br i1 %.not.i3.i69, label %57, label %56

56:                                               ; preds = %avio_r8.exit.i67
  tail call fastcc void @fill_buffer(ptr noundef nonnull %0)
  %.pre.i4.i70 = load ptr, ptr %7, align 8, !tbaa !16
  %.pre7.i5.i71 = load ptr, ptr %8, align 8, !tbaa !19
  br label %57

57:                                               ; preds = %56, %avio_r8.exit.i67
  %58 = phi ptr [ %.pre7.i5.i71, %56 ], [ %46, %avio_r8.exit.i67 ]
  %59 = phi ptr [ %.pre.i4.i70, %56 ], [ %55, %avio_r8.exit.i67 ]
  %60 = icmp ult ptr %59, %58
  br i1 %60, label %61, label %avio_rb16.exit73

61:                                               ; preds = %57
  %62 = getelementptr inbounds nuw i8, ptr %59, i64 1
  store ptr %62, ptr %7, align 8, !tbaa !16
  %63 = load i8, ptr %59, align 1, !tbaa !33
  %64 = zext i8 %63 to i32
  br label %avio_rb16.exit73

avio_rb16.exit73:                                 ; preds = %57, %61
  %.0.i6.i72 = phi i32 [ %64, %61 ], [ 0, %57 ]
  %65 = add nsw i32 %.0.i.i68, %.0.i6.i72
  br label %66

66:                                               ; preds = %41, %avio_rb16.exit73
  %67 = phi i32 [ %65, %avio_rb16.exit73 ], [ -56320, %41 ]
  %68 = or i32 %67, %39
  %or.cond.not = icmp ult i32 %68, 1024
  br i1 %or.cond.not, label %.thread92, label %.thread98

.thread92:                                        ; preds = %66
  %69 = shl nuw nsw i32 %39, 10
  %70 = add nuw nsw i32 %69, 65536
  %71 = or disjoint i32 %67, %70
  br label %82

72:                                               ; preds = %36
  %.not63 = icmp eq i32 %38, 0
  br i1 %.not63, label %.thread98, label %73

73:                                               ; preds = %72
  %74 = icmp samesign ult i32 %38, 128
  br i1 %74, label %75, label %82

75:                                               ; preds = %73
  %76 = ptrtoint ptr %.050106 to i64
  %77 = sub i64 %76, %9
  %78 = icmp slt i64 %77, %11
  br i1 %78, label %79, label %.loopexit

79:                                               ; preds = %75
  %80 = trunc nuw nsw i32 %.0.i6.i to i8
  %81 = getelementptr inbounds nuw i8, ptr %.050106, i64 1
  store i8 %80, ptr %.050106, align 1, !tbaa !33
  br label %.loopexit

82:                                               ; preds = %.thread92, %73
  %.156.ph9096 = phi i32 [ %71, %.thread92 ], [ %38, %73 ]
  %.354.ph9195 = phi i32 [ %42, %.thread92 ], [ %13, %73 ]
  %.not.i = icmp samesign ult i32 %.156.ph9096, 65536
  %83 = lshr i32 %.156.ph9096, 16
  %spec.select.i = select i1 %.not.i, i32 %.156.ph9096, i32 %83
  %spec.select12.i = select i1 %.not.i, i16 0, i16 16
  %.not11.i = icmp samesign ult i32 %spec.select.i, 256
  %84 = lshr i32 %spec.select.i, 8
  %85 = or disjoint i16 %spec.select12.i, 8
  %.110.i = select i1 %.not11.i, i32 %spec.select.i, i32 %84
  %.1.i = select i1 %.not11.i, i16 %spec.select12.i, i16 %85
  %86 = zext nneg i32 %.110.i to i64
  %87 = getelementptr inbounds nuw [256 x i8], ptr @ff_log2_tab, i64 0, i64 %86
  %88 = load i8, ptr %87, align 1, !tbaa !33
  %89 = zext i8 %88 to i16
  %90 = add nuw nsw i16 %89, 4
  %.lhs.trunc = add nuw nsw i16 %90, %.1.i
  %91 = udiv i16 %.lhs.trunc, 5
  %.zext = zext nneg i16 %91 to i32
  %92 = mul nuw nsw i32 %.zext, 6
  %93 = add nsw i32 %92, -6
  %94 = ptrtoint ptr %.050106 to i64
  %95 = sub i64 %94, %9
  %96 = icmp slt i64 %95, %11
  br i1 %96, label %97, label %104

97:                                               ; preds = %82
  %98 = lshr i32 256, %.zext
  %99 = sub nsw i32 0, %98
  %100 = lshr i32 %.156.ph9096, %93
  %101 = or i32 %100, %99
  %102 = trunc i32 %101 to i8
  %103 = getelementptr inbounds nuw i8, ptr %.050106, i64 1
  store i8 %102, ptr %.050106, align 1, !tbaa !33
  br label %104

104:                                              ; preds = %97, %82
  %.4 = phi ptr [ %103, %97 ], [ %.050106, %82 ]
  %105 = icmp samesign ugt i16 %.lhs.trunc, 9
  br i1 %105, label %.lr.ph, label %.loopexit

.lr.ph:                                           ; preds = %104, %116
  %.049104 = phi i32 [ %106, %116 ], [ %93, %104 ]
  %.5103 = phi ptr [ %.6, %116 ], [ %.4, %104 ]
  %106 = add nsw i32 %.049104, -6
  %107 = ptrtoint ptr %.5103 to i64
  %108 = sub i64 %107, %9
  %109 = icmp slt i64 %108, %11
  br i1 %109, label %110, label %116

110:                                              ; preds = %.lr.ph
  %111 = lshr i32 %.156.ph9096, %106
  %112 = trunc i32 %111 to i8
  %113 = and i8 %112, 63
  %114 = or disjoint i8 %113, -128
  %115 = getelementptr inbounds nuw i8, ptr %.5103, i64 1
  store i8 %114, ptr %.5103, align 1, !tbaa !33
  br label %116

116:                                              ; preds = %110, %.lr.ph
  %.6 = phi ptr [ %115, %110 ], [ %.5103, %.lr.ph ]
  %117 = icmp sgt i32 %.049104, 11
  br i1 %117, label %.lr.ph, label %.loopexit, !llvm.loop !64

.loopexit:                                        ; preds = %116, %104, %79, %75
  %.35480 = phi i32 [ %13, %75 ], [ %13, %79 ], [ %.354.ph9195, %104 ], [ %.354.ph9195, %116 ]
  %.2 = phi ptr [ %.050106, %75 ], [ %81, %79 ], [ %.4, %104 ], [ %.6, %116 ]
  %118 = add nsw i32 %.35480, 1
  %119 = icmp slt i32 %118, %1
  br i1 %119, label %12, label %.thread98

.thread98:                                        ; preds = %.loopexit, %72, %66, %.preheader
  %.050.lcssa = phi ptr [ %2, %.preheader ], [ %.050106, %66 ], [ %.050106, %72 ], [ %.2, %.loopexit ]
  %.152 = phi i32 [ 0, %.preheader ], [ %42, %66 ], [ %13, %72 ], [ %.35480, %.loopexit ]
  store i8 0, ptr %.050.lcssa, align 1, !tbaa !33
  br label %120

120:                                              ; preds = %4, %.thread98
  %.0 = phi i32 [ %.152, %.thread98 ], [ -22, %4 ]
  ret i32 %.0
}